target datalayout = "e-m:e-p270:32:32-p271:32:32-p272:64:64-i64:64-i128:128-f80:128-n8:16:32:64-S128"
target triple = "x86_64-pc-linux-gnu"

%struct.bipbuf_t = type { i64, i32, i32, i32, i32, [0 x i8] }

; Function Attrs: nounwind uwtable
define dso_local i32 @bipbuf_unused(ptr noundef %0) #0 {
  %2 = alloca i32, align 4
  %3 = alloca ptr, align 8
  store ptr %0, ptr %3, align 8, !tbaa !4
  %4 = load ptr, ptr %3, align 8, !tbaa !4
  %5 = getelementptr inbounds nuw %struct.bipbuf_t, ptr %4, i32 0, i32 4
  %6 = load i32, ptr %5, align 4, !tbaa !8
  %7 = icmp eq i32 1, %6
  br i1 %7, label %8, label %16

8:                                                ; preds = %1
  %9 = load ptr, ptr %3, align 8, !tbaa !4
  %10 = getelementptr inbounds nuw %struct.bipbuf_t, ptr %9, i32 0, i32 1
  %11 = load i32, ptr %10, align 8, !tbaa !8
  %12 = load ptr, ptr %3, align 8, !tbaa !4
  %13 = getelementptr inbounds nuw %struct.bipbuf_t, ptr %12, i32 0, i32 3
  %14 = load i32, ptr %13, align 8, !tbaa !8
  %15 = sub i32 %11, %14
  store i32 %15, ptr %2, align 4
  br label %26

16:                                               ; preds = %1
  %17 = load ptr, ptr %3, align 8, !tbaa !4
  %18 = getelementptr inbounds nuw %struct.bipbuf_t, ptr %17, i32 0, i32 0
  %19 = load i64, ptr %18, align 8, !tbaa !10
  %20 = load ptr, ptr %3, align 8, !tbaa !4
  %21 = getelementptr inbounds nuw %struct.bipbuf_t, ptr %20, i32 0, i32 2
  %22 = load i32, ptr %21, align 4, !tbaa !8
  %23 = zext i32 %22 to i64
  %24 = sub i64 %19, %23
  %25 = trunc i64 %24 to i32
  store i32 %25, ptr %2, align 4
  br label %26

26:                                               ; preds = %16, %8
  %27 = load i32, ptr %2, align 4
  ret i32 %27
}

; Function Attrs: nounwind uwtable
define dso_local ptr @bipbuf_request(ptr noundef %0, i32 noundef %1) #0 {
  %3 = alloca ptr, align 8
  %4 = alloca ptr, align 8
  %5 = alloca i32, align 4
  store ptr %0, ptr %4, align 8, !tbaa !4
  store i32 %1, ptr %5, align 4, !tbaa !8
  %6 = load ptr, ptr %4, align 8, !tbaa !4
  %7 = call i32 @bipbuf_unused(ptr noundef %6)
  %8 = load i32, ptr %5, align 4, !tbaa !8
  %9 = icmp slt i32 %7, %8
  br i1 %9, label %10, label %11

10:                                               ; preds = %2
  store ptr null, ptr %3, align 8
  br label %34

11:                                               ; preds = %2
  %12 = load ptr, ptr %4, align 8, !tbaa !4
  %13 = getelementptr inbounds nuw %struct.bipbuf_t, ptr %12, i32 0, i32 4
  %14 = load i32, ptr %13, align 4, !tbaa !8
  %15 = icmp eq i32 1, %14
  br i1 %15, label %16, label %25

16:                                               ; preds = %11
  %17 = load ptr, ptr %4, align 8, !tbaa !4
  %18 = getelementptr inbounds nuw %struct.bipbuf_t, ptr %17, i32 0, i32 5
  %19 = getelementptr inbounds [0 x i8], ptr %18, i64 0, i64 0
  %20 = load ptr, ptr %4, align 8, !tbaa !4
  %21 = getelementptr inbounds nuw %struct.bipbuf_t, ptr %20, i32 0, i32 3
  %22 = load i32, ptr %21, align 8, !tbaa !8
  %23 = zext i32 %22 to i64
  %24 = getelementptr inbounds nuw i8, ptr %19, i64 %23
  store ptr %24, ptr %3, align 8
  br label %34

25:                                               ; preds = %11
  %26 = load ptr, ptr %4, align 8, !tbaa !4
  %27 = getelementptr inbounds nuw %struct.bipbuf_t, ptr %26, i32 0, i32 5
  %28 = getelementptr inbounds [0 x i8], ptr %27, i64 0, i64 0
  %29 = load ptr, ptr %4, align 8, !tbaa !4
  %30 = getelementptr inbounds nuw %struct.bipbuf_t, ptr %29, i32 0, i32 2
  %31 = load i32, ptr %30, align 4, !tbaa !8
  %32 = zext i32 %31 to i64
  %33 = getelementptr inbounds nuw i8, ptr %28, i64 %32
  store ptr %33, ptr %3, align 8
  br label %34

34:                                               ; preds = %25, %16, %10
  %35 = load ptr, ptr %3, align 8
  ret ptr %35
}