; Function Attrs: mustprogress nofree norecurse nosync nounwind willreturn memory(argmem: read) uwtable
define dso_local ptr @bipbuf_request(ptr noundef readonly captures(ret: address, provenance) %0, i32 noundef %1) local_unnamed_addr #0 {
  %3 = getelementptr inbounds nuw i8, ptr %0, i64 20
  %4 = load i32, ptr %3, align 4, !tbaa !4
  %5 = icmp eq i32 %4, 1
  br i1 %5, label %bipbuf_unused.exit, label %bipbuf_unused.exit.thread

bipbuf_unused.exit:                               ; preds = %2
  %6 = getelementptr inbounds nuw i8, ptr %0, i64 8
  %7 = load i32, ptr %6, align 8, !tbaa !4
  %8 = getelementptr inbounds nuw i8, ptr %0, i64 16
  %9 = load i32, ptr %8, align 8, !tbaa !4
  %10 = sub i32 %7, %9
  %11 = icmp slt i32 %10, %1
  br i1 %11, label %25, label %18

bipbuf_unused.exit.thread:                        ; preds = %2
  %12 = load i64, ptr %0, align 8, !tbaa !8
  %13 = getelementptr inbounds nuw i8, ptr %0, i64 12
  %14 = load i32, ptr %13, align 4, !tbaa !4
  %15 = trunc i64 %12 to i32
  %16 = sub i32 %15, %14
  %17 = icmp slt i32 %16, %1
  br i1 %17, label %25, label %.thread

18:                                               ; preds = %bipbuf_unused.exit
  %19 = getelementptr inbounds nuw i8, ptr %0, i64 24
  %20 = zext i32 %9 to i64
  %21 = getelementptr inbounds nuw i8, ptr %19, i64 %20
  br label %25

.thread:                                          ; preds = %bipbuf_unused.exit.thread
  %22 = getelementptr inbounds nuw i8, ptr %0, i64 24
  %23 = zext i32 %14 to i64
  %24 = getelementptr inbounds nuw i8, ptr %22, i64 %23
  br label %25

25:                                               ; preds = %bipbuf_unused.exit.thread, %bipbuf_unused.exit, %.thread, %18
  %.0 = phi ptr [ %21, %18 ], [ %24, %.thread ], [ null, %bipbuf_unused.exit ], [ null, %bipbuf_unused.exit.thread ]
  ret ptr %.0
}